; Function Attrs: mustprogress uwtable
define internal noundef ptr @"_ZZN4pkpy12add_module_cEPNS_2VMEEN4$_108__invokeES1_PNS_8PyObjectES4_"(ptr noundef %0, ptr nocapture noundef readonly %1, ptr noundef %2) #3 align 2 {
  %4 = alloca i64, align 8
  %5 = getelementptr inbounds i8, ptr %1, i64 24
  %6 = tail call noundef i64 @_ZN4pkpy18_py_cast__internalIlLb1EEET_PNS_2VMEPNS_8PyObjectE(ptr noundef %0, ptr noundef %2)
  %7 = load ptr, ptr %5, align 8
  %8 = getelementptr inbounds i8, ptr %7, i64 %6
  call void @llvm.lifetime.start.p0(i64 8, ptr nonnull %4)
  %9 = load i8, ptr %8, align 1
  %10 = sext i8 %9 to i64
  store i64 %10, ptr %4, align 8
  %11 = icmp sgt i8 %9, -1
  br i1 %11, label %12, label %16

12:                                               ; preds = %3
  %13 = shl nuw nsw i64 %10, 2
  %14 = or disjoint i64 %13, 2
  %15 = inttoptr i64 %14 to ptr
  br label %"_ZZN4pkpy12add_module_cEPNS_2VMEENK4$_10clES1_PNS_8PyObjectES4_.exit"

16:                                               ; preds = %3
  %17 = getelementptr inbounds i8, ptr %0, i64 16
  %18 = call noundef ptr @_ZN4pkpy11ManagedHeap5gcnewIlJRlEEEPNS_8PyObjectENS_4TypeEDpOT0_(ptr noundef nonnull align 8 dereferenceable(84) %17, i16 2, ptr noundef nonnull align 8 dereferenceable(8) %4)
  br label %"_ZZN4pkpy12add_module_cEPNS_2VMEENK4$_10clES1_PNS_8PyObjectES4_.exit"

"_ZZN4pkpy12add_module_cEPNS_2VMEENK4$_10clES1_PNS_8PyObjectES4_.exit": ; preds = %12, %16
  %.0.i.i = phi ptr [ %15, %12 ], [ %18, %16 ]
  call void @llvm.lifetime.end.p0(i64 8, ptr nonnull %4)
  ret ptr %.0.i.i
}